(dp0
I38
I1
sI39
I2
sI40
I7
sI41
I15
sI42
I22
sI43
I18
sI44
I45
sI45
I42
sI46
I64
sI47
I61
sI48
I80
sI49
I59
sI50
I55
sI51
I59
sI52
I58
sI53
I58
sI54
I54
sI55
I34
sI56
I43
sI57
I35
sI58
I26
sI59
I25
sI60
I28
sI61
I19
sI62
I14
sI63
I11
sI64
I13
sI65
I3
sI66
I15
sI67
I7
sI68
I3
sI69
I6
sI70
I3
sI71
I2
sI72
I3
sI74
I1
sI76
I2
sI77
I1
sI79
I2
sI80
I1
sI81
I1
sI82
I1
sI92
I1
s.